target datalayout = "e-m:e-p270:32:32-p271:32:32-p272:64:64-i64:64-i128:128-f80:128-n8:16:32:64-S128"
target triple = "x86_64-unknown-linux-gnu"

%"class.FLAC::Metadata::Prototype" = type <{ ptr, ptr, i8, [7 x i8] }>
%"class.FLAC::Metadata::CueSheet::Track" = type { ptr, ptr }

; Function Attrs: mustprogress nounwind sspstrong uwtable
define linkonce_odr noundef ptr @_ZNK4FLAC8Metadata8CueSheet5Track9get_trackEv(ptr noundef nonnull align 8 dereferenceable(16) %this) #5 comdat align 2 {
entry:
  %this.addr = alloca ptr, align 8
  store ptr %this, ptr %this.addr, align 8
  %this1 = load ptr, ptr %this.addr, align 8
  %object_ = getelementptr inbounds %"class.FLAC::Metadata::CueSheet::Track", ptr %this1, i32 0, i32 1
  %0 = load ptr, ptr %object_, align 8
  ret ptr %0
}

; Function Attrs: mustprogress sspstrong uwtable
define noundef zeroext i1 @_ZN4FLAC8Metadata8CueSheet12insert_trackEjRKNS1_5TrackE(ptr noundef nonnull align 8 dereferenceable(17) %this, i32 noundef %i, ptr noundef nonnull align 8 dereferenceable(16) %track) #0 align 2 {
entry:
  %this.addr = alloca ptr, align 8
  %i.addr = alloca i32, align 4
  %track.addr = alloca ptr, align 8
  store ptr %this, ptr %this.addr, align 8
  store i32 %i, ptr %i.addr, align 4
  store ptr %track, ptr %track.addr, align 8
  %this1 = load ptr, ptr %this.addr, align 8
  %object_ = getelementptr inbounds %"class.FLAC::Metadata::Prototype", ptr %this1, i32 0, i32 1
  %0 = load ptr, ptr %object_, align 8
  %1 = load i32, ptr %i.addr, align 4
  %2 = load ptr, ptr %track.addr, align 8
  %call = call noundef ptr @_ZNK4FLAC8Metadata8CueSheet5Track9get_trackEv(ptr noundef nonnull align 8 dereferenceable(16) %2)
  %call2 = call i32 @FLAC__metadata_object_cuesheet_insert_track(ptr noundef %0, i32 noundef %1, ptr noundef %call, i32 noundef 1)
  %tobool = icmp ne i32 %call2, 0
  ret i1 %tobool
}