; Function Attrs: mustprogress sspstrong uwtable
define noundef zeroext i1 @_ZN4FLAC8Metadata8CueSheet12insert_trackEjRKNS1_5TrackE(ptr nocapture noundef nonnull readonly align 8 dereferenceable(17) %this, i32 noundef %i, ptr nocapture noundef nonnull readonly align 8 dereferenceable(16) %track) local_unnamed_addr #0 align 2 {
entry:
  %object_ = getelementptr inbounds i8, ptr %this, i64 8
  %0 = load ptr, ptr %object_, align 8
  %object_.i = getelementptr inbounds i8, ptr %track, i64 8
  %1 = load ptr, ptr %object_.i, align 8
  %call2 = tail call i32 @FLAC__metadata_object_cuesheet_insert_track(ptr noundef %0, i32 noundef %i, ptr noundef %1, i32 noundef 1)
  %tobool = icmp ne i32 %call2, 0
  ret i1 %tobool
}